ARM GAS  C:\Users\NICOLA~1\AppData\Local\Temp\ccB93tUg.s 			page 1


   1              		.syntax unified
   2              		.cpu cortex-m3
   3              		.fpu softvfp
   4              		.eabi_attribute 20, 1
   5              		.eabi_attribute 21, 1
   6              		.eabi_attribute 23, 3
   7              		.eabi_attribute 24, 1
   8              		.eabi_attribute 25, 1
   9              		.eabi_attribute 26, 1
  10              		.eabi_attribute 30, 1
  11              		.eabi_attribute 34, 1
  12              		.eabi_attribute 18, 4
  13              		.thumb
  14              		.syntax unified
  15              		.file	"main.c"
  16              		.text
  17              	.Ltext0:
  18              		.cfi_sections	.debug_frame
  19              		.section	.text.InteQi,"ax",%progbits
  20              		.align	2
  21              		.global	InteQi
  22              		.thumb
  23              		.thumb_func
  24              		.type	InteQi, %function
  25              	InteQi:
  26              	.LFB64:
  27              		.file 1 "main.c"
   1:main.c        **** /* ========================================
   2:main.c        ****  *
   3:main.c        ****  * Copyright YOUR COMPANY, THE YEAR
   4:main.c        ****  * All Rights Reserved
   5:main.c        ****  * UNPUBLISHED, LICENSED SOFTWARE.
   6:main.c        ****  *
   7:main.c        ****  * CONFIDENTIAL AND PROPRIETARY INFORMATION
   8:main.c        ****  * WHICH IS THE PROPERTY OF your company.
   9:main.c        ****  *
  10:main.c        ****  * ========================================
  11:main.c        **** */
  12:main.c        **** #include "project.h"
  13:main.c        **** 
  14:main.c        **** uint16 volatile i=0;
  15:main.c        **** uint8 volatile  aux=0;
  16:main.c        **** uint16 volatile tiempo;
  17:main.c        **** 
  18:main.c        **** 
  19:main.c        **** void impri(){
  20:main.c        ****         
  21:main.c        ****        if(i==0){
  22:main.c        ****                  LCD_Position(0,10);//Se ubica la Posicion Para el Numero
  23:main.c        ****                  LCD_PrintString("Error ");
  24:main.c        ****         }else{
  25:main.c        ****              
  26:main.c        ****         switch(aux){     
  27:main.c        ****             
  28:main.c        ****         case 0:
  29:main.c        ****             LCD_Position(0,10);//Se ubica la Posicion Para el Numero
  30:main.c        ****             LCD_PrintString("    Hz");//Se borra para que la libreria no afecte
ARM GAS  C:\Users\NICOLA~1\AppData\Local\Temp\ccB93tUg.s 			page 2


  31:main.c        ****             LCD_Position(0,10);//Se ubica la Posicion Para el Numero
  32:main.c        ****             LCD_PrintNumber(i);
  33:main.c        ****             break;
  34:main.c        ****         case 1:
  35:main.c        ****             LCD_Position(0,10);//Se ubica la Posicion Para el Numero
  36:main.c        ****             LCD_PrintString("      ");//Se borra para que la libreria no afecte
  37:main.c        ****             LCD_Position(0,10);//Se ubica la Posicion Para el Numero
  38:main.c        ****             LCD_PrintNumber(i/1000);
  39:main.c        ****             LCD_Position(0,12);//Se ubica la Posicion Para el Numero
  40:main.c        ****             LCD_PrintString(".");
  41:main.c        ****             LCD_PrintNumber(i%1000);
  42:main.c        ****             break;
  43:main.c        ****         default:
  44:main.c        ****             break;
  45:main.c        ****             }
  46:main.c        ****        }
  47:main.c        **** }
  48:main.c        **** 
  49:main.c        **** CY_ISR(InteQi){
  28              		.loc 1 49 0
  29              		.cfi_startproc
  30              		@ args = 0, pretend = 0, frame = 0
  31              		@ frame_needed = 0, uses_anonymous_args = 0
  32 0000 08B5     		push	{r3, lr}
  33              		.cfi_def_cfa_offset 8
  34              		.cfi_offset 3, -8
  35              		.cfi_offset 14, -4
  50:main.c        ****     i=i+1;
  36              		.loc 1 50 0
  37 0002 044A     		ldr	r2, .L3
  38 0004 1388     		ldrh	r3, [r2]
  39 0006 9BB2     		uxth	r3, r3
  40 0008 0133     		adds	r3, r3, #1
  41 000a 9BB2     		uxth	r3, r3
  42 000c 1380     		strh	r3, [r2]	@ movhi
  51:main.c        ****     Qi_ClearInterrupt();//Limpia interucpcion en puerto
  43              		.loc 1 51 0
  44 000e FFF7FEFF 		bl	Qi_ClearInterrupt
  45              	.LVL0:
  46 0012 08BD     		pop	{r3, pc}
  47              	.L4:
  48              		.align	2
  49              	.L3:
  50 0014 00000000 		.word	.LANCHOR0
  51              		.cfi_endproc
  52              	.LFE64:
  53              		.size	InteQi, .-InteQi
  54              		.section	.text.InteSw,"ax",%progbits
  55              		.align	2
  56              		.global	InteSw
  57              		.thumb
  58              		.thumb_func
  59              		.type	InteSw, %function
  60              	InteSw:
  61              	.LFB65:
  52:main.c        **** }
  53:main.c        **** 
ARM GAS  C:\Users\NICOLA~1\AppData\Local\Temp\ccB93tUg.s 			page 3


  54:main.c        **** CY_ISR(InteSw){
  62              		.loc 1 54 0
  63              		.cfi_startproc
  64              		@ args = 0, pretend = 0, frame = 0
  65              		@ frame_needed = 0, uses_anonymous_args = 0
  66 0000 08B5     		push	{r3, lr}
  67              		.cfi_def_cfa_offset 8
  68              		.cfi_offset 3, -8
  69              		.cfi_offset 14, -4
  55:main.c        ****     switch(sw_Read()){
  70              		.loc 1 55 0
  71 0002 FFF7FEFF 		bl	sw_Read
  72              	.LVL1:
  73 0006 0528     		cmp	r0, #5
  74 0008 13D0     		beq	.L7
  75 000a 0628     		cmp	r0, #6
  76 000c 02D0     		beq	.L8
  77 000e 0328     		cmp	r0, #3
  78 0010 2CD1     		bne	.L6
  79 0012 1DE0     		b	.L9
  80              	.L8:
  56:main.c        ****     case 0x06:
  57:main.c        ****         LCD_Position(1,0);//Se ubica la Posicion Para el Numero
  81              		.loc 1 57 0
  82 0014 0021     		movs	r1, #0
  83 0016 0120     		movs	r0, #1
  84 0018 FFF7FEFF 		bl	LCD_Position
  85              	.LVL2:
  58:main.c        ****         LCD_PrintString(" 1 Hz a 100 Hz");//Se pone la resolucion
  86              		.loc 1 58 0
  87 001c 1548     		ldr	r0, .L11
  88 001e FFF7FEFF 		bl	LCD_PrintString
  89              	.LVL3:
  59:main.c        ****         aux=0;
  90              		.loc 1 59 0
  91 0022 0022     		movs	r2, #0
  92 0024 144B     		ldr	r3, .L11+4
  93 0026 9A70     		strb	r2, [r3, #2]
  60:main.c        ****         tiempo=909;
  94              		.loc 1 60 0
  95 0028 40F28D32 		movw	r2, #909
  96 002c 134B     		ldr	r3, .L11+8
  97 002e 1A80     		strh	r2, [r3]	@ movhi
  61:main.c        ****         break;
  98              		.loc 1 61 0
  99 0030 1CE0     		b	.L6
 100              	.L7:
  62:main.c        ****     case 0x05:
  63:main.c        ****         LCD_Position(1,0);//Se ubica la Posicion Para el Numero
 101              		.loc 1 63 0
 102 0032 0021     		movs	r1, #0
 103 0034 0120     		movs	r0, #1
 104 0036 FFF7FEFF 		bl	LCD_Position
 105              	.LVL4:
  64:main.c        ****         LCD_PrintString("100 Hz a 1 kHz");//Se pone la resolucion
 106              		.loc 1 64 0
 107 003a 1148     		ldr	r0, .L11+12
ARM GAS  C:\Users\NICOLA~1\AppData\Local\Temp\ccB93tUg.s 			page 4


 108 003c FFF7FEFF 		bl	LCD_PrintString
 109              	.LVL5:
  65:main.c        ****         aux=0;
 110              		.loc 1 65 0
 111 0040 0022     		movs	r2, #0
 112 0042 0D4B     		ldr	r3, .L11+4
 113 0044 9A70     		strb	r2, [r3, #2]
  66:main.c        ****         tiempo=909;
 114              		.loc 1 66 0
 115 0046 40F28D32 		movw	r2, #909
 116 004a 0C4B     		ldr	r3, .L11+8
 117 004c 1A80     		strh	r2, [r3]	@ movhi
  67:main.c        ****         break;
 118              		.loc 1 67 0
 119 004e 0DE0     		b	.L6
 120              	.L9:
  68:main.c        ****     case 0x03:
  69:main.c        ****         LCD_Position(1,0);//Se ubica la Posicion Para el Numero
 121              		.loc 1 69 0
 122 0050 0021     		movs	r1, #0
 123 0052 0120     		movs	r0, #1
 124 0054 FFF7FEFF 		bl	LCD_Position
 125              	.LVL6:
  70:main.c        ****         LCD_PrintString("1 kHz a 10 kHz");//Se pone la resolucion
 126              		.loc 1 70 0
 127 0058 0A48     		ldr	r0, .L11+16
 128 005a FFF7FEFF 		bl	LCD_PrintString
 129              	.LVL7:
  71:main.c        ****         aux=1;
 130              		.loc 1 71 0
 131 005e 0122     		movs	r2, #1
 132 0060 054B     		ldr	r3, .L11+4
 133 0062 9A70     		strb	r2, [r3, #2]
  72:main.c        ****         tiempo=990;
 134              		.loc 1 72 0
 135 0064 40F2DE32 		movw	r2, #990
 136 0068 044B     		ldr	r3, .L11+8
 137 006a 1A80     		strh	r2, [r3]	@ movhi
 138              	.L6:
  73:main.c        ****         break;
  74:main.c        ****      default:
  75:main.c        ****         break;
  76:main.c        ****     }
  77:main.c        ****     sw_ClearInterrupt();//Limpia interupcion en el puerto
 139              		.loc 1 77 0
 140 006c FFF7FEFF 		bl	sw_ClearInterrupt
 141              	.LVL8:
 142 0070 08BD     		pop	{r3, pc}
 143              	.L12:
 144 0072 00BF     		.align	2
 145              	.L11:
 146 0074 00000000 		.word	.LC0
 147 0078 00000000 		.word	.LANCHOR0
 148 007c 00000000 		.word	tiempo
 149 0080 10000000 		.word	.LC1
 150 0084 20000000 		.word	.LC2
 151              		.cfi_endproc
ARM GAS  C:\Users\NICOLA~1\AppData\Local\Temp\ccB93tUg.s 			page 5


 152              	.LFE65:
 153              		.size	InteSw, .-InteSw
 154              		.section	.text.impri,"ax",%progbits
 155              		.align	2
 156              		.global	impri
 157              		.thumb
 158              		.thumb_func
 159              		.type	impri, %function
 160              	impri:
 161              	.LFB63:
  19:main.c        ****         
 162              		.loc 1 19 0
 163              		.cfi_startproc
 164              		@ args = 0, pretend = 0, frame = 0
 165              		@ frame_needed = 0, uses_anonymous_args = 0
 166 0000 38B5     		push	{r3, r4, r5, lr}
 167              		.cfi_def_cfa_offset 16
 168              		.cfi_offset 3, -16
 169              		.cfi_offset 4, -12
 170              		.cfi_offset 5, -8
 171              		.cfi_offset 14, -4
  21:main.c        ****                  LCD_Position(0,10);//Se ubica la Posicion Para el Numero
 172              		.loc 1 21 0
 173 0002 264B     		ldr	r3, .L19
 174 0004 1B88     		ldrh	r3, [r3]
 175 0006 9BB2     		uxth	r3, r3
 176 0008 3BB9     		cbnz	r3, .L14
  22:main.c        ****                  LCD_PrintString("Error ");
 177              		.loc 1 22 0
 178 000a 0A21     		movs	r1, #10
 179 000c 0020     		movs	r0, #0
 180 000e FFF7FEFF 		bl	LCD_Position
 181              	.LVL9:
  23:main.c        ****         }else{
 182              		.loc 1 23 0
 183 0012 2348     		ldr	r0, .L19+4
 184 0014 FFF7FEFF 		bl	LCD_PrintString
 185              	.LVL10:
 186 0018 38BD     		pop	{r3, r4, r5, pc}
 187              	.L14:
  26:main.c        ****             
 188              		.loc 1 26 0
 189 001a 204B     		ldr	r3, .L19
 190 001c 9B78     		ldrb	r3, [r3, #2]	@ zero_extendqisi2
 191 001e 03F0FF02 		and	r2, r3, #255
 192 0022 13B1     		cbz	r3, .L16
 193 0024 012A     		cmp	r2, #1
 194 0026 11D0     		beq	.L17
 195 0028 38BD     		pop	{r3, r4, r5, pc}
 196              	.L16:
  29:main.c        ****             LCD_PrintString("    Hz");//Se borra para que la libreria no afecte
 197              		.loc 1 29 0
 198 002a 0A21     		movs	r1, #10
 199 002c 0020     		movs	r0, #0
 200 002e FFF7FEFF 		bl	LCD_Position
 201              	.LVL11:
  30:main.c        ****             LCD_Position(0,10);//Se ubica la Posicion Para el Numero
ARM GAS  C:\Users\NICOLA~1\AppData\Local\Temp\ccB93tUg.s 			page 6


 202              		.loc 1 30 0
 203 0032 1C48     		ldr	r0, .L19+8
 204 0034 FFF7FEFF 		bl	LCD_PrintString
 205              	.LVL12:
  31:main.c        ****             LCD_PrintNumber(i);
 206              		.loc 1 31 0
 207 0038 0A21     		movs	r1, #10
 208 003a 0020     		movs	r0, #0
 209 003c FFF7FEFF 		bl	LCD_Position
 210              	.LVL13:
  32:main.c        ****             break;
 211              		.loc 1 32 0
 212 0040 164B     		ldr	r3, .L19
 213 0042 1888     		ldrh	r0, [r3]
 214 0044 80B2     		uxth	r0, r0
 215 0046 FFF7FEFF 		bl	LCD_PrintU32Number
 216              	.LVL14:
  33:main.c        ****         case 1:
 217              		.loc 1 33 0
 218 004a 38BD     		pop	{r3, r4, r5, pc}
 219              	.L17:
  35:main.c        ****             LCD_PrintString("      ");//Se borra para que la libreria no afecte
 220              		.loc 1 35 0
 221 004c 0A21     		movs	r1, #10
 222 004e 0020     		movs	r0, #0
 223 0050 FFF7FEFF 		bl	LCD_Position
 224              	.LVL15:
  36:main.c        ****             LCD_Position(0,10);//Se ubica la Posicion Para el Numero
 225              		.loc 1 36 0
 226 0054 1448     		ldr	r0, .L19+12
 227 0056 FFF7FEFF 		bl	LCD_PrintString
 228              	.LVL16:
  37:main.c        ****             LCD_PrintNumber(i/1000);
 229              		.loc 1 37 0
 230 005a 0A21     		movs	r1, #10
 231 005c 0020     		movs	r0, #0
 232 005e FFF7FEFF 		bl	LCD_Position
 233              	.LVL17:
  38:main.c        ****             LCD_Position(0,12);//Se ubica la Posicion Para el Numero
 234              		.loc 1 38 0
 235 0062 0E4D     		ldr	r5, .L19
 236 0064 2888     		ldrh	r0, [r5]
 237 0066 80B2     		uxth	r0, r0
 238 0068 104C     		ldr	r4, .L19+16
 239 006a A4FB0030 		umull	r3, r0, r4, r0
 240 006e 8009     		lsrs	r0, r0, #6
 241 0070 FFF7FEFF 		bl	LCD_PrintU32Number
 242              	.LVL18:
  39:main.c        ****             LCD_PrintString(".");
 243              		.loc 1 39 0
 244 0074 0C21     		movs	r1, #12
 245 0076 0020     		movs	r0, #0
 246 0078 FFF7FEFF 		bl	LCD_Position
 247              	.LVL19:
  40:main.c        ****             LCD_PrintNumber(i%1000);
 248              		.loc 1 40 0
 249 007c 0C48     		ldr	r0, .L19+20
ARM GAS  C:\Users\NICOLA~1\AppData\Local\Temp\ccB93tUg.s 			page 7


 250 007e FFF7FEFF 		bl	LCD_PrintString
 251              	.LVL20:
  41:main.c        ****             break;
 252              		.loc 1 41 0
 253 0082 2888     		ldrh	r0, [r5]
 254 0084 83B2     		uxth	r3, r0
 255 0086 A4FB0324 		umull	r2, r4, r4, r3
 256 008a A409     		lsrs	r4, r4, #6
 257 008c 4FF47A70 		mov	r0, #1000
 258 0090 00FB1430 		mls	r0, r0, r4, r3
 259 0094 80B2     		uxth	r0, r0
 260 0096 FFF7FEFF 		bl	LCD_PrintU32Number
 261              	.LVL21:
 262 009a 38BD     		pop	{r3, r4, r5, pc}
 263              	.L20:
 264              		.align	2
 265              	.L19:
 266 009c 00000000 		.word	.LANCHOR0
 267 00a0 30000000 		.word	.LC3
 268 00a4 38000000 		.word	.LC4
 269 00a8 40000000 		.word	.LC5
 270 00ac D34D6210 		.word	274877907
 271 00b0 48000000 		.word	.LC6
 272              		.cfi_endproc
 273              	.LFE63:
 274              		.size	impri, .-impri
 275              		.section	.text.main,"ax",%progbits
 276              		.align	2
 277              		.global	main
 278              		.thumb
 279              		.thumb_func
 280              		.type	main, %function
 281              	main:
 282              	.LFB66:
  78:main.c        **** }
  79:main.c        **** 
  80:main.c        **** 
  81:main.c        **** 
  82:main.c        **** int main(void)
  83:main.c        **** {   
 283              		.loc 1 83 0
 284              		.cfi_startproc
 285              		@ Volatile: function does not return.
 286              		@ args = 0, pretend = 0, frame = 0
 287              		@ frame_needed = 0, uses_anonymous_args = 0
 288 0000 08B5     		push	{r3, lr}
 289              		.cfi_def_cfa_offset 8
 290              		.cfi_offset 3, -8
 291              		.cfi_offset 14, -4
  84:main.c        ****     sw_irq_StartEx(InteSw);//Declara vector de interupcion para el bloque de interupcion
 292              		.loc 1 84 0
 293 0002 1348     		ldr	r0, .L24
 294 0004 FFF7FEFF 		bl	sw_irq_StartEx
 295              	.LVL22:
  85:main.c        ****     Qi_irq_StartEx(InteQi);//Declara vector de interupcion para el bloque de interupcion
 296              		.loc 1 85 0
 297 0008 1248     		ldr	r0, .L24+4
ARM GAS  C:\Users\NICOLA~1\AppData\Local\Temp\ccB93tUg.s 			page 8


 298 000a FFF7FEFF 		bl	Qi_irq_StartEx
 299              	.LVL23:
  86:main.c        ****     LCD_Start();//Inicia LCD  y Carga caracteres personalizados 
 300              		.loc 1 86 0
 301 000e FFF7FEFF 		bl	LCD_Start
 302              	.LVL24:
  87:main.c        ****     LCD_PrintString("Frecuency: ");
 303              		.loc 1 87 0
 304 0012 1148     		ldr	r0, .L24+8
 305 0014 FFF7FEFF 		bl	LCD_PrintString
 306              	.LVL25:
  88:main.c        ****     LCD_Position(1,0);//Se ubica la Posicion Para el Numero
 307              		.loc 1 88 0
 308 0018 0021     		movs	r1, #0
 309 001a 0120     		movs	r0, #1
 310 001c FFF7FEFF 		bl	LCD_Position
 311              	.LVL26:
  89:main.c        ****     LCD_PrintString("1 Hz a 100 Hz");//Se pone la resolucion
 312              		.loc 1 89 0
 313 0020 0E48     		ldr	r0, .L24+12
 314 0022 FFF7FEFF 		bl	LCD_PrintString
 315              	.LVL27:
  90:main.c        ****     tiempo=909;
 316              		.loc 1 90 0
 317 0026 40F28D32 		movw	r2, #909
 318 002a 0D4B     		ldr	r3, .L24+16
 319 002c 1A80     		strh	r2, [r3]	@ movhi
  91:main.c        ****     CyGlobalIntEnable; /* Enable global interrupts. */
 320              		.loc 1 91 0
 321              		.syntax unified
 322              	@ 91 "main.c" 1
 323 002e 62B6     		CPSIE   i
 324              	@ 0 "" 2
 325              		.thumb
 326              		.syntax unified
 327              	.L22:
  92:main.c        ****     for(;;)
  93:main.c        ****     {   
  94:main.c        ****     i=0;
 328              		.loc 1 94 0 discriminator 1
 329 0030 0022     		movs	r2, #0
 330 0032 0C4B     		ldr	r3, .L24+20
 331 0034 1A80     		strh	r2, [r3]	@ movhi
  95:main.c        ****     CyDelay(tiempo);//Retardo de un segundo   
 332              		.loc 1 95 0 discriminator 1
 333 0036 0A4B     		ldr	r3, .L24+16
 334 0038 1888     		ldrh	r0, [r3]
 335 003a 80B2     		uxth	r0, r0
 336 003c FFF7FEFF 		bl	CyDelay
 337              	.LVL28:
  96:main.c        ****     CyDelayUs(400);
 338              		.loc 1 96 0 discriminator 1
 339 0040 4FF4C870 		mov	r0, #400
 340 0044 FFF7FEFF 		bl	CyDelayUs
 341              	.LVL29:
  97:main.c        ****     impri();
 342              		.loc 1 97 0 discriminator 1
ARM GAS  C:\Users\NICOLA~1\AppData\Local\Temp\ccB93tUg.s 			page 9


 343 0048 FFF7FEFF 		bl	impri
 344              	.LVL30:
 345 004c F0E7     		b	.L22
 346              	.L25:
 347 004e 00BF     		.align	2
 348              	.L24:
 349 0050 00000000 		.word	InteSw
 350 0054 00000000 		.word	InteQi
 351 0058 4C000000 		.word	.LC7
 352 005c 58000000 		.word	.LC8
 353 0060 00000000 		.word	tiempo
 354 0064 00000000 		.word	.LANCHOR0
 355              		.cfi_endproc
 356              	.LFE66:
 357              		.size	main, .-main
 358              		.comm	tiempo,2,2
 359              		.global	aux
 360              		.global	i
 361              		.section	.rodata.str1.4,"aMS",%progbits,1
 362              		.align	2
 363              	.LC0:
 364 0000 20312048 		.ascii	" 1 Hz a 100 Hz\000"
 364      7A206120 
 364      31303020 
 364      487A00
 365 000f 00       		.space	1
 366              	.LC1:
 367 0010 31303020 		.ascii	"100 Hz a 1 kHz\000"
 367      487A2061 
 367      2031206B 
 367      487A00
 368 001f 00       		.space	1
 369              	.LC2:
 370 0020 31206B48 		.ascii	"1 kHz a 10 kHz\000"
 370      7A206120 
 370      3130206B 
 370      487A00
 371 002f 00       		.space	1
 372              	.LC3:
 373 0030 4572726F 		.ascii	"Error \000"
 373      722000
 374 0037 00       		.space	1
 375              	.LC4:
 376 0038 20202020 		.ascii	"    Hz\000"
 376      487A00
 377 003f 00       		.space	1
 378              	.LC5:
 379 0040 20202020 		.ascii	"      \000"
 379      202000
 380 0047 00       		.space	1
 381              	.LC6:
 382 0048 2E00     		.ascii	".\000"
 383 004a 0000     		.space	2
 384              	.LC7:
 385 004c 46726563 		.ascii	"Frecuency: \000"
 385      75656E63 
 385      793A2000 
ARM GAS  C:\Users\NICOLA~1\AppData\Local\Temp\ccB93tUg.s 			page 10


 386              	.LC8:
 387 0058 3120487A 		.ascii	"1 Hz a 100 Hz\000"
 387      20612031 
 387      30302048 
 387      7A00
 388              		.bss
 389              		.align	1
 390              		.set	.LANCHOR0,. + 0
 391              		.type	i, %object
 392              		.size	i, 2
 393              	i:
 394 0000 0000     		.space	2
 395              		.type	aux, %object
 396              		.size	aux, 1
 397              	aux:
 398 0002 00       		.space	1
 399              		.text
 400              	.Letext0:
 401              		.file 2 "c:\\program files (x86)\\cypress\\psoc creator\\4.2\\psoc creator\\import\\gnu\\arm\\5.4.
 402              		.file 3 "c:\\program files (x86)\\cypress\\psoc creator\\4.2\\psoc creator\\import\\gnu\\arm\\5.4.
 403              		.file 4 "Generated_Source\\PSoC5/cytypes.h"
 404              		.file 5 "Generated_Source\\PSoC5/core_cm3.h"
 405              		.file 6 "Generated_Source\\PSoC5/Qi.h"
 406              		.file 7 "Generated_Source\\PSoC5/sw.h"
 407              		.file 8 "Generated_Source\\PSoC5/LCD.h"
 408              		.file 9 "Generated_Source\\PSoC5/sw_irq.h"
 409              		.file 10 "Generated_Source\\PSoC5/Qi_irq.h"
 410              		.file 11 "Generated_Source\\PSoC5/CyLib.h"